; Function Attrs: mustprogress nounwind uwtable
define noundef zeroext i1 @_ZN7glslang11HlslGrammar16acceptExpressionERPNS_12TIntermTypedE(ptr noundef nonnull align 8 dereferenceable(360) %0, ptr noundef nonnull align 8 dereferenceable(8) %1) local_unnamed_addr #0 align 2 {
  %3 = alloca %"struct.glslang::TSourceLoc", align 8
  %4 = alloca ptr, align 8
  store ptr null, ptr %1, align 8
  %5 = tail call noundef zeroext i1 @_ZN7glslang11HlslGrammar26acceptAssignmentExpressionERPNS_12TIntermTypedE(ptr noundef nonnull align 8 dereferenceable(360) %0, ptr noundef nonnull align 8 dereferenceable(8) %1)
  br i1 %5, label %6, label %.loopexit

6:                                                ; preds = %2
  %7 = tail call noundef zeroext i1 @_ZNK7glslang15HlslTokenStream14peekTokenClassENS_15EHlslTokenClassE(ptr noundef nonnull align 8 dereferenceable(324) %0, i32 noundef 362) #16
  br i1 %7, label %.preheader, label %.loopexit

.preheader:                                       ; preds = %6
  %8 = getelementptr inbounds i8, ptr %0, i64 8
  %9 = getelementptr inbounds i8, ptr %0, i64 336
  br label %10

10:                                               ; preds = %.preheader, %18
  call void @llvm.memcpy.p0.p0.i64(ptr noundef nonnull align 8 dereferenceable(24) %3, ptr noundef nonnull align 8 dereferenceable(24) %8, i64 24, i1 false)
  call void @_ZN7glslang15HlslTokenStream12advanceTokenEv(ptr noundef nonnull align 8 dereferenceable(324) %0) #16
  store ptr null, ptr %4, align 8
  %11 = call noundef zeroext i1 @_ZN7glslang11HlslGrammar26acceptAssignmentExpressionERPNS_12TIntermTypedE(ptr noundef nonnull align 8 dereferenceable(360) %0, ptr noundef nonnull align 8 dereferenceable(8) %4)
  br i1 %11, label %18, label %12

12:                                               ; preds = %10
  %13 = getelementptr inbounds i8, ptr %0, i64 328
  %14 = load ptr, ptr %13, align 8
  %15 = load ptr, ptr %14, align 8
  %16 = getelementptr inbounds i8, ptr %15, i64 344
  %17 = load ptr, ptr %16, align 8
  call void (ptr, ptr, ptr, ptr, ptr, ...) %17(ptr noundef nonnull align 8 dereferenceable(1280) %14, ptr noundef nonnull align 8 dereferenceable(24) %8, ptr noundef nonnull @.str, ptr noundef nonnull @.str.76, ptr noundef nonnull @.str.1) #16
  br label %.loopexit

18:                                               ; preds = %10
  %19 = load ptr, ptr %9, align 8
  %20 = load ptr, ptr %1, align 8
  %21 = load ptr, ptr %4, align 8
  %22 = call noundef ptr @_ZN7glslang13TIntermediate8addCommaEPNS_12TIntermTypedES2_RKNS_10TSourceLocE(ptr noundef nonnull align 8 dereferenceable(2024) %19, ptr noundef %20, ptr noundef %21, ptr noundef nonnull align 8 dereferenceable(24) %3) #16
  store ptr %22, ptr %1, align 8
  %23 = call noundef zeroext i1 @_ZNK7glslang15HlslTokenStream14peekTokenClassENS_15EHlslTokenClassE(ptr noundef nonnull align 8 dereferenceable(324) %0, i32 noundef 362) #16
  br i1 %23, label %10, label %.loopexit, !llvm.loop !45

.loopexit:                                        ; preds = %18, %6, %2, %12
  %.0 = phi i1 [ false, %12 ], [ false, %2 ], [ true, %6 ], [ true, %18 ]
  ret i1 %.0
}